target datalayout = "e-m:e-p270:32:32-p271:32:32-p272:64:64-i64:64-i128:128-f80:128-n8:16:32:64-S128"
target triple = "x86_64-pc-linux-gnu"

@proto_register_epon.ett = internal global [3 x ptr] [ptr @ett_epon, ptr @ett_epon_sec, ptr @ett_epon_checksum], align 16
@.str.35 = private unnamed_addr constant [25 x i8] c"IEEE 802.3 EPON Preamble\00", align 1
@.str.36 = private unnamed_addr constant [5 x i8] c"EPON\00", align 1
@.str.37 = private unnamed_addr constant [5 x i8] c"epon\00", align 1
@proto_epon = internal global i32 0, align 4
@epon_handle = internal global ptr null, align 8

; Function Attrs: null_pointer_is_valid sspstrong uwtable
define hidden void @proto_register_epon() #0 {
  %1 = alloca ptr, align 8
  call void @llvm.lifetime.start.p0(i64 8, ptr %1) #3
  %2 = call i32 @proto_register_protocol(ptr noundef @.str.35, ptr noundef @.str.36, ptr noundef @.str.37)
  store i32 %2, ptr @proto_epon, align 4
  %3 = load i32, ptr @proto_epon, align 4
  call void @proto_register_field_array(i32 noundef %3, ptr noundef @proto_register_epon.hf, i32 noundef 9)
  call void @proto_register_subtree_array(ptr noundef @proto_register_epon.ett, i32 noundef 3)
  %4 = load i32, ptr @proto_epon, align 4
  %5 = call ptr @expert_register_protocol(i32 noundef %4)
  store ptr %5, ptr %1, align 8
  %6 = load ptr, ptr %1, align 8
  call void @expert_register_field_array(ptr noundef %6, ptr noundef @proto_register_epon.ei, i32 noundef 5)
  %7 = load i32, ptr @proto_epon, align 4
  %8 = call ptr @register_dissector(ptr noundef @.str.37, ptr noundef @dissect_epon, i32 noundef %7)
  store ptr %8, ptr @epon_handle, align 8
  call void @llvm.lifetime.end.p0(i64 8, ptr %1) #3
  ret void
}